; ModuleID = '40/2154.c'
source_filename = "40/2154.c"
target datalayout = "e-m:e-p270:32:32-p271:32:32-p272:64:64-i64:64-f80:128-n8:16:32:64-S128"
target triple = "x86_64-pc-linux-gnu"

@.str = private unnamed_addr constant [16 x i8] c"%lf%lf%lf%lf%lf\00", align 1
@.str.1 = private unnamed_addr constant [14 x i8] c"Invalid input\00", align 1
@.str.2 = private unnamed_addr constant [6 x i8] c"%.4lf\00", align 1

; Function Attrs: noinline nounwind uwtable
define dso_local i32 @main() #0 {
  %1 = alloca i32, align 4
  %2 = alloca double, align 8
  %3 = alloca double, align 8
  %4 = alloca double, align 8
  %5 = alloca double, align 8
  %6 = alloca double, align 8
  %7 = alloca double, align 8
  %8 = alloca double, align 8
  store i32 0, i32* %1, align 4
  %9 = call i32 (i8*, ...) @__isoc99_scanf(i8* getelementptr inbounds ([16 x i8], [16 x i8]* @.str, i64 0, i64 0), double* %2, double* %3, double* %4, double* %5, double* %8)
  %10 = load double, double* %2, align 8
  %11 = load double, double* %3, align 8
  %12 = fadd double %10, %11
  %13 = load double, double* %4, align 8
  %14 = fadd double %12, %13
  %15 = load double, double* %5, align 8
  %16 = fadd double %14, %15
  %17 = fdiv double %16, 2.000000e+00
  store double %17, double* %7, align 8
  %18 = load double, double* %7, align 8
  %19 = load double, double* %2, align 8
  %20 = fsub double %18, %19
  %21 = load double, double* %7, align 8
  %22 = load double, double* %3, align 8
  %23 = fsub double %21, %22
  %24 = fmul double %20, %23
  %25 = load double, double* %7, align 8
  %26 = load double, double* %4, align 8
  %27 = fsub double %25, %26
  %28 = fmul double %24, %27
  %29 = load double, double* %7, align 8
  %30 = load double, double* %5, align 8
  %31 = fsub double %29, %30
  %32 = fmul double %28, %31
  %33 = load double, double* %2, align 8
  %34 = load double, double* %3, align 8
  %35 = fmul double %33, %34
  %36 = load double, double* %4, align 8
  %37 = fmul double %35, %36
  %38 = load double, double* %5, align 8
  %39 = fmul double %37, %38
  %40 = load double, double* %8, align 8
  %41 = fmul double %40, 0x400921FB4D12D84A
  %42 = fdiv double %41, 1.800000e+02
  %43 = fdiv double %42, 2.000000e+00
  %44 = call double @cos(double %43) #3
  %45 = fmul double %39, %44
  %46 = load double, double* %8, align 8
  %47 = fmul double %46, 0x400921FB4D12D84A
  %48 = fdiv double %47, 1.800000e+02
  %49 = fdiv double %48, 2.000000e+00
  %50 = call double @cos(double %49) #3
  %51 = fmul double %45, %50
  %52 = fsub double %32, %51
  %53 = call double @sqrt(double %52) #3
  store double %53, double* %6, align 8
  %54 = load double, double* %7, align 8
  %55 = load double, double* %2, align 8
  %56 = fsub double %54, %55
  %57 = load double, double* %7, align 8
  %58 = load double, double* %3, align 8
  %59 = fsub double %57, %58
  %60 = fmul double %56, %59
  %61 = load double, double* %7, align 8
  %62 = load double, double* %4, align 8
  %63 = fsub double %61, %62
  %64 = fmul double %60, %63
  %65 = load double, double* %7, align 8
  %66 = load double, double* %5, align 8
  %67 = fsub double %65, %66
  %68 = fmul double %64, %67
  %69 = load double, double* %2, align 8
  %70 = load double, double* %3, align 8
  %71 = fmul double %69, %70
  %72 = load double, double* %4, align 8
  %73 = fmul double %71, %72
  %74 = load double, double* %5, align 8
  %75 = fmul double %73, %74
  %76 = load double, double* %8, align 8
  %77 = fmul double %76, 0x400921FB4D12D84A
  %78 = fdiv double %77, 1.800000e+02
  %79 = fdiv double %78, 2.000000e+00
  %80 = call double @cos(double %79) #3
  %81 = fmul double %75, %80
  %82 = load double, double* %8, align 8
  %83 = fmul double %82, 0x400921FB4D12D84A
  %84 = fdiv double %83, 1.800000e+02
  %85 = fdiv double %84, 2.000000e+00
  %86 = call double @cos(double %85) #3
  %87 = fmul double %81, %86
  %88 = fsub double %68, %87
  %89 = fcmp olt double %88, 0.000000e+00
  br i1 %89, label %90, label %92

90:                                               ; preds = %0
  %91 = call i32 (i8*, ...) @printf(i8* getelementptr inbounds ([14 x i8], [14 x i8]* @.str.1, i64 0, i64 0))
  br label %95

92:                                               ; preds = %0
  %93 = load double, double* %6, align 8
  %94 = call i32 (i8*, ...) @printf(i8* getelementptr inbounds ([6 x i8], [6 x i8]* @.str.2, i64 0, i64 0), double %93)
  br label %95

95:                                               ; preds = %92, %90
  ret i32 0
}

declare dso_local i32 @__isoc99_scanf(i8*, ...) #1

; Function Attrs: nounwind
declare dso_local double @sqrt(double) #2

; Function Attrs: nounwind
declare dso_local double @cos(double) #2

declare dso_local i32 @printf(i8*, ...) #1


!llvm.module.flags = !{!0}
!llvm.ident = !{!1}

!0 = !{i32 1, !"wchar_size", i32 4}
!1 = !{!"clang version 10.0.0-4ubuntu1 "}
